target datalayout = "e-m:e-p270:32:32-p271:32:32-p272:64:64-i64:64-i128:128-f80:128-n8:16:32:64-S128"
target triple = "x86_64-unknown-linux-gnu"

%struct.stbi__result_info = type { i32, i32, i32 }

@_ZL22stbi__g_failure_reason = internal thread_local global ptr null, align 8
@_ZL36stbi__vertically_flip_on_load_global = internal global i32 0, align 4
@_ZL35stbi__vertically_flip_on_load_local = internal thread_local global i32 0, align 4
@_ZL33stbi__vertically_flip_on_load_set = internal thread_local global i32 0, align 4
@.str.26 = private unnamed_addr constant [9 x i8] c"outofmem\00", align 1

; Function Attrs: mustprogress nounwind uwtable
define internal noundef i32 @_ZL9stbi__errPKc(ptr noundef %str) #0 {
entry:
  %str.addr = alloca ptr, align 8
  store ptr %str, ptr %str.addr, align 8
  %0 = load ptr, ptr %str.addr, align 8
  %1 = call align 8 ptr @llvm.threadlocal.address.p0(ptr align 8 @_ZL22stbi__g_failure_reason)
  store ptr %0, ptr %1, align 8
  ret i32 0
}

; Function Attrs: mustprogress nounwind uwtable
define internal noundef ptr @_ZL12stbi__mallocm(i64 noundef %size) #0 {
entry:
  %size.addr = alloca i64, align 8
  store i64 %size, ptr %size.addr, align 8
  %0 = load i64, ptr %size.addr, align 8
  %call = call noalias ptr @malloc(i64 noundef %0) #25
  ret ptr %call
}

; Function Attrs: mustprogress nounwind uwtable
define internal void @_ZL19stbi__vertical_flipPviii(ptr noundef %image, i32 noundef %w, i32 noundef %h, i32 noundef %bytes_per_pixel) #0 {
entry:
  %image.addr = alloca ptr, align 8
  %w.addr = alloca i32, align 4
  %h.addr = alloca i32, align 4
  %bytes_per_pixel.addr = alloca i32, align 4
  %row = alloca i32, align 4
  %bytes_per_row = alloca i64, align 8
  %temp = alloca [2048 x i8], align 16
  %bytes = alloca ptr, align 8
  %row0 = alloca ptr, align 8
  %row1 = alloca ptr, align 8
  %bytes_left = alloca i64, align 8
  %bytes_copy = alloca i64, align 8
  store ptr %image, ptr %image.addr, align 8
  store i32 %w, ptr %w.addr, align 4
  store i32 %h, ptr %h.addr, align 4
  store i32 %bytes_per_pixel, ptr %bytes_per_pixel.addr, align 4
  %0 = load i32, ptr %w.addr, align 4
  %conv = sext i32 %0 to i64
  %1 = load i32, ptr %bytes_per_pixel.addr, align 4
  %conv1 = sext i32 %1 to i64
  %mul = mul i64 %conv, %conv1
  store i64 %mul, ptr %bytes_per_row, align 8
  %2 = load ptr, ptr %image.addr, align 8
  store ptr %2, ptr %bytes, align 8
  store i32 0, ptr %row, align 4
  br label %for.cond

for.cond:                                         ; preds = %for.inc, %entry
  %3 = load i32, ptr %row, align 4
  %4 = load i32, ptr %h.addr, align 4
  %shr = ashr i32 %4, 1
  %cmp = icmp slt i32 %3, %shr
  br i1 %cmp, label %for.body, label %for.end

for.body:                                         ; preds = %for.cond
  %5 = load ptr, ptr %bytes, align 8
  %6 = load i32, ptr %row, align 4
  %conv2 = sext i32 %6 to i64
  %7 = load i64, ptr %bytes_per_row, align 8
  %mul3 = mul i64 %conv2, %7
  %add.ptr = getelementptr inbounds i8, ptr %5, i64 %mul3
  store ptr %add.ptr, ptr %row0, align 8
  %8 = load ptr, ptr %bytes, align 8
  %9 = load i32, ptr %h.addr, align 4
  %10 = load i32, ptr %row, align 4
  %sub = sub nsw i32 %9, %10
  %sub4 = sub nsw i32 %sub, 1
  %conv5 = sext i32 %sub4 to i64
  %11 = load i64, ptr %bytes_per_row, align 8
  %mul6 = mul i64 %conv5, %11
  %add.ptr7 = getelementptr inbounds i8, ptr %8, i64 %mul6
  store ptr %add.ptr7, ptr %row1, align 8
  %12 = load i64, ptr %bytes_per_row, align 8
  store i64 %12, ptr %bytes_left, align 8
  br label %while.cond

while.cond:                                       ; preds = %cond.end, %for.body
  %13 = load i64, ptr %bytes_left, align 8
  %tobool = icmp ne i64 %13, 0
  br i1 %tobool, label %while.body, label %while.end

while.body:                                       ; preds = %while.cond
  %14 = load i64, ptr %bytes_left, align 8
  %cmp8 = icmp ult i64 %14, 2048
  br i1 %cmp8, label %cond.true, label %cond.false

cond.true:                                        ; preds = %while.body
  %15 = load i64, ptr %bytes_left, align 8
  br label %cond.end

cond.false:                                       ; preds = %while.body
  br label %cond.end

cond.end:                                         ; preds = %cond.false, %cond.true
  %cond = phi i64 [ %15, %cond.true ], [ 2048, %cond.false ]
  store i64 %cond, ptr %bytes_copy, align 8
  %arraydecay = getelementptr inbounds [2048 x i8], ptr %temp, i64 0, i64 0
  %16 = load ptr, ptr %row0, align 8
  %17 = load i64, ptr %bytes_copy, align 8
  call void @llvm.memcpy.p0.p0.i64(ptr align 16 %arraydecay, ptr align 1 %16, i64 %17, i1 false)
  %18 = load ptr, ptr %row0, align 8
  %19 = load ptr, ptr %row1, align 8
  %20 = load i64, ptr %bytes_copy, align 8
  call void @llvm.memcpy.p0.p0.i64(ptr align 1 %18, ptr align 1 %19, i64 %20, i1 false)
  %21 = load ptr, ptr %row1, align 8
  %arraydecay9 = getelementptr inbounds [2048 x i8], ptr %temp, i64 0, i64 0
  %22 = load i64, ptr %bytes_copy, align 8
  call void @llvm.memcpy.p0.p0.i64(ptr align 1 %21, ptr align 16 %arraydecay9, i64 %22, i1 false)
  %23 = load i64, ptr %bytes_copy, align 8
  %24 = load ptr, ptr %row0, align 8
  %add.ptr10 = getelementptr inbounds i8, ptr %24, i64 %23
  store ptr %add.ptr10, ptr %row0, align 8
  %25 = load i64, ptr %bytes_copy, align 8
  %26 = load ptr, ptr %row1, align 8
  %add.ptr11 = getelementptr inbounds i8, ptr %26, i64 %25
  store ptr %add.ptr11, ptr %row1, align 8
  %27 = load i64, ptr %bytes_copy, align 8
  %28 = load i64, ptr %bytes_left, align 8
  %sub12 = sub i64 %28, %27
  store i64 %sub12, ptr %bytes_left, align 8
  br label %while.cond, !llvm.loop !27

while.end:                                        ; preds = %while.cond
  br label %for.inc

for.inc:                                          ; preds = %while.end
  %29 = load i32, ptr %row, align 4
  %inc = add nsw i32 %29, 1
  store i32 %inc, ptr %row, align 4
  br label %for.cond, !llvm.loop !28

for.end:                                          ; preds = %for.cond
  ret void
}

; Function Attrs: mustprogress uwtable
define internal noundef ptr @_ZL21stbi__convert_8_to_16Phiii(ptr noundef %orig, i32 noundef %w, i32 noundef %h, i32 noundef %channels) #5 {
entry:
  %retval = alloca ptr, align 8
  %orig.addr = alloca ptr, align 8
  %w.addr = alloca i32, align 4
  %h.addr = alloca i32, align 4
  %channels.addr = alloca i32, align 4
  %i = alloca i32, align 4
  %img_len = alloca i32, align 4
  %enlarged = alloca ptr, align 8
  store ptr %orig, ptr %orig.addr, align 8
  store i32 %w, ptr %w.addr, align 4
  store i32 %h, ptr %h.addr, align 4
  store i32 %channels, ptr %channels.addr, align 4
  %0 = load i32, ptr %w.addr, align 4
  %1 = load i32, ptr %h.addr, align 4
  %mul = mul nsw i32 %0, %1
  %2 = load i32, ptr %channels.addr, align 4
  %mul1 = mul nsw i32 %mul, %2
  store i32 %mul1, ptr %img_len, align 4
  %3 = load i32, ptr %img_len, align 4
  %mul2 = mul nsw i32 %3, 2
  %conv = sext i32 %mul2 to i64
  %call = call noundef ptr @_ZL12stbi__mallocm(i64 noundef %conv)
  store ptr %call, ptr %enlarged, align 8
  %4 = load ptr, ptr %enlarged, align 8
  %cmp = icmp eq ptr %4, null
  br i1 %cmp, label %if.then, label %if.end

if.then:                                          ; preds = %entry
  %call3 = call noundef i32 @_ZL9stbi__errPKc(ptr noundef @.str.26)
  %tobool = icmp ne i32 %call3, 0
  %cond = select i1 %tobool, i64 0, i64 0
  %5 = inttoptr i64 %cond to ptr
  store ptr %5, ptr %retval, align 8
  br label %return

if.end:                                           ; preds = %entry
  store i32 0, ptr %i, align 4
  br label %for.cond

for.cond:                                         ; preds = %for.inc, %if.end
  %6 = load i32, ptr %i, align 4
  %7 = load i32, ptr %img_len, align 4
  %cmp4 = icmp slt i32 %6, %7
  br i1 %cmp4, label %for.body, label %for.end

for.body:                                         ; preds = %for.cond
  %8 = load ptr, ptr %orig.addr, align 8
  %9 = load i32, ptr %i, align 4
  %idxprom = sext i32 %9 to i64
  %arrayidx = getelementptr inbounds i8, ptr %8, i64 %idxprom
  %10 = load i8, ptr %arrayidx, align 1
  %conv5 = zext i8 %10 to i32
  %shl = shl i32 %conv5, 8
  %11 = load ptr, ptr %orig.addr, align 8
  %12 = load i32, ptr %i, align 4
  %idxprom6 = sext i32 %12 to i64
  %arrayidx7 = getelementptr inbounds i8, ptr %11, i64 %idxprom6
  %13 = load i8, ptr %arrayidx7, align 1
  %conv8 = zext i8 %13 to i32
  %add = add nsw i32 %shl, %conv8
  %conv9 = trunc i32 %add to i16
  %14 = load ptr, ptr %enlarged, align 8
  %15 = load i32, ptr %i, align 4
  %idxprom10 = sext i32 %15 to i64
  %arrayidx11 = getelementptr inbounds i16, ptr %14, i64 %idxprom10
  store i16 %conv9, ptr %arrayidx11, align 2
  br label %for.inc

for.inc:                                          ; preds = %for.body
  %16 = load i32, ptr %i, align 4
  %inc = add nsw i32 %16, 1
  store i32 %inc, ptr %i, align 4
  br label %for.cond, !llvm.loop !104

for.end:                                          ; preds = %for.cond
  %17 = load ptr, ptr %orig.addr, align 8
  call void @free(ptr noundef %17) #3
  %18 = load ptr, ptr %enlarged, align 8
  store ptr %18, ptr %retval, align 8
  br label %return

return:                                           ; preds = %for.end, %if.then
  %19 = load ptr, ptr %retval, align 8
  ret ptr %19
}

; Function Attrs: mustprogress uwtable
define internal noundef ptr @_ZL32stbi__load_and_postprocess_16bitP13stbi__contextPiS1_S1_i(ptr noundef %s, ptr noundef %x, ptr noundef %y, ptr noundef %comp, i32 noundef %req_comp) #5 {
entry:
  %retval = alloca ptr, align 8
  %s.addr = alloca ptr, align 8
  %x.addr = alloca ptr, align 8
  %y.addr = alloca ptr, align 8
  %comp.addr = alloca ptr, align 8
  %req_comp.addr = alloca i32, align 4
  %ri = alloca %struct.stbi__result_info, align 4
  %result = alloca ptr, align 8
  %channels = alloca i32, align 4
  store ptr %s, ptr %s.addr, align 8
  store ptr %x, ptr %x.addr, align 8
  store ptr %y, ptr %y.addr, align 8
  store ptr %comp, ptr %comp.addr, align 8
  store i32 %req_comp, ptr %req_comp.addr, align 4
  %0 = load ptr, ptr %s.addr, align 8
  %1 = load ptr, ptr %x.addr, align 8
  %2 = load ptr, ptr %y.addr, align 8
  %3 = load ptr, ptr %comp.addr, align 8
  %4 = load i32, ptr %req_comp.addr, align 4
  %call = call noundef ptr @_ZL15stbi__load_mainP13stbi__contextPiS1_S1_iP17stbi__result_infoi(ptr noundef %0, ptr noundef %1, ptr noundef %2, ptr noundef %3, i32 noundef %4, ptr noundef %ri, i32 noundef 16)
  store ptr %call, ptr %result, align 8
  %5 = load ptr, ptr %result, align 8
  %cmp = icmp eq ptr %5, null
  br i1 %cmp, label %if.then, label %if.end

if.then:                                          ; preds = %entry
  store ptr null, ptr %retval, align 8
  br label %return

if.end:                                           ; preds = %entry
  %bits_per_channel = getelementptr inbounds %struct.stbi__result_info, ptr %ri, i32 0, i32 0
  %6 = load i32, ptr %bits_per_channel, align 4
  %cmp1 = icmp ne i32 %6, 16
  br i1 %cmp1, label %if.then2, label %if.end6

if.then2:                                         ; preds = %if.end
  %7 = load ptr, ptr %result, align 8
  %8 = load ptr, ptr %x.addr, align 8
  %9 = load i32, ptr %8, align 4
  %10 = load ptr, ptr %y.addr, align 8
  %11 = load i32, ptr %10, align 4
  %12 = load i32, ptr %req_comp.addr, align 4
  %cmp3 = icmp eq i32 %12, 0
  br i1 %cmp3, label %cond.true, label %cond.false

cond.true:                                        ; preds = %if.then2
  %13 = load ptr, ptr %comp.addr, align 8
  %14 = load i32, ptr %13, align 4
  br label %cond.end

cond.false:                                       ; preds = %if.then2
  %15 = load i32, ptr %req_comp.addr, align 4
  br label %cond.end

cond.end:                                         ; preds = %cond.false, %cond.true
  %cond = phi i32 [ %14, %cond.true ], [ %15, %cond.false ]
  %call4 = call noundef ptr @_ZL21stbi__convert_8_to_16Phiii(ptr noundef %7, i32 noundef %9, i32 noundef %11, i32 noundef %cond)
  store ptr %call4, ptr %result, align 8
  %bits_per_channel5 = getelementptr inbounds %struct.stbi__result_info, ptr %ri, i32 0, i32 0
  store i32 16, ptr %bits_per_channel5, align 4
  br label %if.end6

if.end6:                                          ; preds = %cond.end, %if.end
  %16 = call align 4 ptr @llvm.threadlocal.address.p0(ptr align 4 @_ZL33stbi__vertically_flip_on_load_set)
  %17 = load i32, ptr %16, align 4
  %tobool = icmp ne i32 %17, 0
  br i1 %tobool, label %cond.true7, label %cond.false8

cond.true7:                                       ; preds = %if.end6
  %18 = call align 4 ptr @llvm.threadlocal.address.p0(ptr align 4 @_ZL35stbi__vertically_flip_on_load_local)
  %19 = load i32, ptr %18, align 4
  br label %cond.end9

cond.false8:                                      ; preds = %if.end6
  %20 = load i32, ptr @_ZL36stbi__vertically_flip_on_load_global, align 4
  br label %cond.end9

cond.end9:                                        ; preds = %cond.false8, %cond.true7
  %cond10 = phi i32 [ %19, %cond.true7 ], [ %20, %cond.false8 ]
  %tobool11 = icmp ne i32 %cond10, 0
  br i1 %tobool11, label %if.then12, label %if.end19

if.then12:                                        ; preds = %cond.end9
  %21 = load i32, ptr %req_comp.addr, align 4
  %tobool13 = icmp ne i32 %21, 0
  br i1 %tobool13, label %cond.true14, label %cond.false15

cond.true14:                                      ; preds = %if.then12
  %22 = load i32, ptr %req_comp.addr, align 4
  br label %cond.end16

cond.false15:                                     ; preds = %if.then12
  %23 = load ptr, ptr %comp.addr, align 8
  %24 = load i32, ptr %23, align 4
  br label %cond.end16

cond.end16:                                       ; preds = %cond.false15, %cond.true14
  %cond17 = phi i32 [ %22, %cond.true14 ], [ %24, %cond.false15 ]
  store i32 %cond17, ptr %channels, align 4
  %25 = load ptr, ptr %result, align 8
  %26 = load ptr, ptr %x.addr, align 8
  %27 = load i32, ptr %26, align 4
  %28 = load ptr, ptr %y.addr, align 8
  %29 = load i32, ptr %28, align 4
  %30 = load i32, ptr %channels, align 4
  %conv = sext i32 %30 to i64
  %mul = mul i64 %conv, 2
  %conv18 = trunc i64 %mul to i32
  call void @_ZL19stbi__vertical_flipPviii(ptr noundef %25, i32 noundef %27, i32 noundef %29, i32 noundef %conv18)
  br label %if.end19

if.end19:                                         ; preds = %cond.end16, %cond.end9
  %31 = load ptr, ptr %result, align 8
  store ptr %31, ptr %retval, align 8
  br label %return

return:                                           ; preds = %if.end19, %if.then
  %32 = load ptr, ptr %retval, align 8
  ret ptr %32
}