; Function Attrs: mustprogress uwtable
define internal fastcc noundef ptr @_ZL32stbi__load_and_postprocess_16bitP13stbi__contextPiS1_S1_i(ptr noundef %s, ptr nocapture noundef %x, ptr nocapture noundef %y, ptr noundef %comp, i32 noundef %req_comp) unnamed_addr #3 {
entry:
  %temp.i = alloca [2048 x i8], align 16
  %ri = alloca %struct.stbi__result_info, align 4
  %call = call fastcc noundef ptr @_ZL15stbi__load_mainP13stbi__contextPiS1_S1_iP17stbi__result_infoi(ptr noundef %s, ptr noundef %x, ptr noundef %y, ptr noundef %comp, i32 noundef %req_comp, ptr noundef nonnull %ri)
  %cmp = icmp eq ptr %call, null
  br i1 %cmp, label %return, label %if.end

if.end:                                           ; preds = %entry
  %0 = load i32, ptr %ri, align 4
  %cmp1.not = icmp eq i32 %0, 16
  br i1 %cmp1.not, label %if.end6, label %if.then2

if.then2:                                         ; preds = %if.end
  %1 = load i32, ptr %x, align 4
  %2 = load i32, ptr %y, align 4
  %cmp3 = icmp eq i32 %req_comp, 0
  br i1 %cmp3, label %cond.true, label %cond.end

cond.true:                                        ; preds = %if.then2
  %3 = load i32, ptr %comp, align 4
  br label %cond.end

cond.end:                                         ; preds = %if.then2, %cond.true
  %cond = phi i32 [ %3, %cond.true ], [ %req_comp, %if.then2 ]
  %mul.i = mul nsw i32 %2, %1
  %mul1.i = mul nsw i32 %mul.i, %cond
  %mul2.i = shl nsw i32 %mul1.i, 1
  %conv.i = sext i32 %mul2.i to i64
  %call.i.i = tail call noalias noundef ptr @malloc(i64 noundef %conv.i) #47
  %cmp.i = icmp eq ptr %call.i.i, null
  br i1 %cmp.i, label %if.then.i, label %for.cond.preheader.i

for.cond.preheader.i:                             ; preds = %cond.end
  %cmp410.i = icmp sgt i32 %mul1.i, 0
  br i1 %cmp410.i, label %for.body.preheader.i, label %for.end.i

for.body.preheader.i:                             ; preds = %for.cond.preheader.i
  %wide.trip.count.i = zext nneg i32 %mul1.i to i64
  br label %for.body.i

if.then.i:                                        ; preds = %cond.end
  %4 = tail call align 8 ptr @llvm.threadlocal.address.p0(ptr align 8 @_ZL22stbi__g_failure_reason)
  store ptr @.str.26, ptr %4, align 8
  br label %_ZL21stbi__convert_8_to_16Phiii.exit

for.body.i:                                       ; preds = %for.body.i, %for.body.preheader.i
  %indvars.iv.i = phi i64 [ 0, %for.body.preheader.i ], [ %indvars.iv.next.i, %for.body.i ]
  %arrayidx.i = getelementptr inbounds i8, ptr %call, i64 %indvars.iv.i
  %5 = load i8, ptr %arrayidx.i, align 1
  %conv5.i = zext i8 %5 to i16
  %add.i = mul nuw i16 %conv5.i, 257
  %arrayidx11.i = getelementptr inbounds i16, ptr %call.i.i, i64 %indvars.iv.i
  store i16 %add.i, ptr %arrayidx11.i, align 2
  %indvars.iv.next.i = add nuw nsw i64 %indvars.iv.i, 1
  %exitcond.not.i = icmp eq i64 %indvars.iv.next.i, %wide.trip.count.i
  br i1 %exitcond.not.i, label %for.end.i, label %for.body.i, !llvm.loop !30

for.end.i:                                        ; preds = %for.body.i, %for.cond.preheader.i
  tail call void @free(ptr noundef nonnull %call) #44
  br label %_ZL21stbi__convert_8_to_16Phiii.exit

_ZL21stbi__convert_8_to_16Phiii.exit:             ; preds = %if.then.i, %for.end.i
  store i32 16, ptr %ri, align 4
  br label %if.end6

if.end6:                                          ; preds = %_ZL21stbi__convert_8_to_16Phiii.exit, %if.end
  %result.0 = phi ptr [ %call.i.i, %_ZL21stbi__convert_8_to_16Phiii.exit ], [ %call, %if.end ]
  %6 = tail call align 4 ptr @llvm.threadlocal.address.p0(ptr align 4 @_ZL33stbi__vertically_flip_on_load_set)
  %7 = load i32, ptr %6, align 4
  %tobool.not = icmp eq i32 %7, 0
  %8 = tail call align 4 ptr @llvm.threadlocal.address.p0(ptr align 4 @_ZL35stbi__vertically_flip_on_load_local)
  %cond10.in = select i1 %tobool.not, ptr @_ZL36stbi__vertically_flip_on_load_global, ptr %8
  %cond10 = load i32, ptr %cond10.in, align 4
  %tobool11.not = icmp eq i32 %cond10, 0
  br i1 %tobool11.not, label %return, label %if.then12

if.then12:                                        ; preds = %if.end6
  %tobool13.not = icmp eq i32 %req_comp, 0
  br i1 %tobool13.not, label %cond.false15, label %cond.end16

cond.false15:                                     ; preds = %if.then12
  %9 = load i32, ptr %comp, align 4
  br label %cond.end16

cond.end16:                                       ; preds = %if.then12, %cond.false15
  %cond17 = phi i32 [ %9, %cond.false15 ], [ %req_comp, %if.then12 ]
  %10 = load i32, ptr %x, align 4
  %11 = load i32, ptr %y, align 4
  %mul = shl i32 %cond17, 1
  call void @llvm.lifetime.start.p0(i64 2048, ptr nonnull %temp.i)
  %conv.i14 = sext i32 %10 to i64
  %conv1.i = sext i32 %mul to i64
  %mul.i15 = mul nsw i64 %conv1.i, %conv.i14
  %shr.i = ashr i32 %11, 1
  %cmp24.i = icmp slt i32 %shr.i, 1
  %tobool.not20.i = icmp eq i64 %mul.i15, 0
  %or.cond.i = select i1 %cmp24.i, i1 true, i1 %tobool.not20.i
  br i1 %or.cond.i, label %_ZL19stbi__vertical_flipPviii.exit, label %for.body.preheader.i16

for.body.preheader.i16:                           ; preds = %cond.end16
  %wide.trip.count.i17 = zext nneg i32 %shr.i to i64
  br label %for.body.i18

for.body.i18:                                     ; preds = %while.cond.for.inc_crit_edge.i, %for.body.preheader.i16
  %indvars.iv.i19 = phi i64 [ 0, %for.body.preheader.i16 ], [ %indvars.iv.next.i21, %while.cond.for.inc_crit_edge.i ]
  %mul3.i = mul i64 %indvars.iv.i19, %mul.i15
  %add.ptr.i = getelementptr inbounds i8, ptr %result.0, i64 %mul3.i
  %12 = trunc i64 %indvars.iv.i19 to i32
  %13 = xor i32 %12, -1
  %sub4.i = add i32 %11, %13
  %conv5.i20 = sext i32 %sub4.i to i64
  %mul6.i = mul i64 %mul.i15, %conv5.i20
  %add.ptr7.i = getelementptr inbounds i8, ptr %result.0, i64 %mul6.i
  br label %while.body.i

while.body.i:                                     ; preds = %while.body.i, %for.body.i18
  %bytes_left.023.i = phi i64 [ %mul.i15, %for.body.i18 ], [ %sub12.i, %while.body.i ]
  %row1.022.i = phi ptr [ %add.ptr7.i, %for.body.i18 ], [ %add.ptr11.i, %while.body.i ]
  %row0.021.i = phi ptr [ %add.ptr.i, %for.body.i18 ], [ %add.ptr10.i, %while.body.i ]
  %cond.i = tail call i64 @llvm.umin.i64(i64 %bytes_left.023.i, i64 2048)
  call void @llvm.memcpy.p0.p0.i64(ptr nonnull align 16 %temp.i, ptr align 1 %row0.021.i, i64 %cond.i, i1 false)
  tail call void @llvm.memcpy.p0.p0.i64(ptr align 1 %row0.021.i, ptr align 1 %row1.022.i, i64 %cond.i, i1 false)
  call void @llvm.memcpy.p0.p0.i64(ptr align 1 %row1.022.i, ptr nonnull align 16 %temp.i, i64 %cond.i, i1 false)
  %add.ptr10.i = getelementptr inbounds i8, ptr %row0.021.i, i64 %cond.i
  %add.ptr11.i = getelementptr inbounds i8, ptr %row1.022.i, i64 %cond.i
  %sub12.i = sub i64 %bytes_left.023.i, %cond.i
  %tobool.not.i = icmp eq i64 %sub12.i, 0
  br i1 %tobool.not.i, label %while.cond.for.inc_crit_edge.i, label %while.body.i, !llvm.loop !28

while.cond.for.inc_crit_edge.i:                   ; preds = %while.body.i
  %indvars.iv.next.i21 = add nuw nsw i64 %indvars.iv.i19, 1
  %exitcond.not.i22 = icmp eq i64 %indvars.iv.next.i21, %wide.trip.count.i17
  br i1 %exitcond.not.i22, label %_ZL19stbi__vertical_flipPviii.exit, label %for.body.i18, !llvm.loop !29

_ZL19stbi__vertical_flipPviii.exit:               ; preds = %while.cond.for.inc_crit_edge.i, %cond.end16
  call void @llvm.lifetime.end.p0(i64 2048, ptr nonnull %temp.i)
  br label %return

return:                                           ; preds = %if.end6, %_ZL19stbi__vertical_flipPviii.exit, %entry
  %retval.0 = phi ptr [ null, %entry ], [ %result.0, %_ZL19stbi__vertical_flipPviii.exit ], [ %result.0, %if.end6 ]
  ret ptr %retval.0
}